target datalayout = "e-m:e-p270:32:32-p271:32:32-p272:64:64-i64:64-i128:128-f80:128-n8:16:32:64-S128"
target triple = "x86_64-pc-linux-gnu"

%"class.llvm::SmallVectorBase" = type { ptr, i32, i32 }
%"class.llvm::MachineFunction" = type <{ ptr, ptr, ptr, ptr, ptr, ptr, ptr, ptr, ptr, ptr, ptr, ptr, %"class.std::vector", i32, [4 x i8], %"class.llvm::BumpPtrAllocatorImpl", %"class.llvm::Recycler", %"class.llvm::ArrayRecycler", %"class.llvm::Recycler.30", %"class.llvm::iplist", i32, %"struct.llvm::Align", i8, i8, i8, %"class.llvm::MachineFunctionProperties", %"class.std::unique_ptr", %"class.std::vector.33", %"class.std::vector.38", %"class.std::vector.38", %"class.std::vector.43", %"class.llvm::DenseMap", %"class.llvm::DenseMap.48", %"class.llvm::DenseMap.51", %"class.std::vector.54", i8, i8, i8, i8, i8, i8, [2 x i8], i32, i32, %"class.std::vector.59", %"class.std::vector.64", %"class.std::vector.64", i32, [4 x i8], ptr, ptr, %"class.llvm::DenseMap.69", %"class.llvm::SmallVector.72", i32, [4 x i8], %"class.llvm::SmallVector.77", %"class.llvm::DenseMap.82", i8, [7 x i8] }>
%"class.std::vector" = type { %"struct.std::_Vector_base" }
%"struct.std::_Vector_base" = type { %"struct.std::_Vector_base<llvm::MachineBasicBlock *, std::allocator<llvm::MachineBasicBlock *>>::_Vector_impl" }
%"struct.std::_Vector_base<llvm::MachineBasicBlock *, std::allocator<llvm::MachineBasicBlock *>>::_Vector_impl" = type { %"struct.std::_Vector_base<llvm::MachineBasicBlock *, std::allocator<llvm::MachineBasicBlock *>>::_Vector_impl_data" }
%"struct.std::_Vector_base<llvm::MachineBasicBlock *, std::allocator<llvm::MachineBasicBlock *>>::_Vector_impl_data" = type { ptr, ptr, ptr }
%"class.llvm::BumpPtrAllocatorImpl" = type { ptr, ptr, %"class.llvm::SmallVector.15", %"class.llvm::SmallVector.20", i64, i64 }
%"class.llvm::SmallVector.15" = type { %"class.llvm::SmallVectorImpl.16", %"struct.llvm::SmallVectorStorage.19" }
%"class.llvm::SmallVectorImpl.16" = type { %"class.llvm::SmallVectorTemplateBase.17" }
%"class.llvm::SmallVectorTemplateBase.17" = type { %"class.llvm::SmallVectorTemplateCommon.18" }
%"class.llvm::SmallVectorTemplateCommon.18" = type { %"class.llvm::SmallVectorBase" }
%"struct.llvm::SmallVectorStorage.19" = type { [32 x i8] }
%"class.llvm::SmallVector.20" = type { %"class.llvm::SmallVectorImpl.21" }
%"class.llvm::SmallVectorImpl.21" = type { %"class.llvm::SmallVectorTemplateBase.22" }
%"class.llvm::SmallVectorTemplateBase.22" = type { %"class.llvm::SmallVectorTemplateCommon.23" }
%"class.llvm::SmallVectorTemplateCommon.23" = type { %"class.llvm::SmallVectorBase" }
%"class.llvm::Recycler" = type { ptr }
%"class.llvm::ArrayRecycler" = type { %"class.llvm::SmallVector.25" }
%"class.llvm::SmallVector.25" = type { %"class.llvm::SmallVectorImpl.26", %"struct.llvm::SmallVectorStorage.29" }
%"class.llvm::SmallVectorImpl.26" = type { %"class.llvm::SmallVectorTemplateBase.27" }
%"class.llvm::SmallVectorTemplateBase.27" = type { %"class.llvm::SmallVectorTemplateCommon.28" }
%"class.llvm::SmallVectorTemplateCommon.28" = type { %"class.llvm::SmallVectorBase" }
%"struct.llvm::SmallVectorStorage.29" = type { [64 x i8] }
%"class.llvm::Recycler.30" = type { ptr }
%"class.llvm::iplist" = type { %"class.llvm::iplist_impl" }
%"class.llvm::iplist_impl" = type { %"class.llvm::simple_ilist" }
%"class.llvm::simple_ilist" = type { %"class.llvm::ilist_sentinel" }
%"class.llvm::ilist_sentinel" = type { %"class.llvm::ilist_node_impl" }
%"class.llvm::ilist_node_impl" = type { %"class.llvm::ilist_node_base" }
%"class.llvm::ilist_node_base" = type { %"class.llvm::ilist_detail::node_base_prevnext" }
%"class.llvm::ilist_detail::node_base_prevnext" = type { ptr, ptr }
%"struct.llvm::Align" = type { i8 }
%"class.llvm::MachineFunctionProperties" = type { %"class.std::bitset" }
%"class.std::bitset" = type { %"struct.std::_Base_bitset" }
%"struct.std::_Base_bitset" = type { i64 }
%"class.std::unique_ptr" = type { %"struct.std::__uniq_ptr_data" }
%"struct.std::__uniq_ptr_data" = type { %"class.std::__uniq_ptr_impl" }
%"class.std::__uniq_ptr_impl" = type { %"class.std::tuple" }
%"class.std::tuple" = type { %"struct.std::_Tuple_impl" }
%"struct.std::_Tuple_impl" = type { %"struct.std::_Head_base.32" }
%"struct.std::_Head_base.32" = type { ptr }
%"class.std::vector.33" = type { %"struct.std::_Vector_base.34" }
%"struct.std::_Vector_base.34" = type { %"struct.std::_Vector_base<llvm::MCCFIInstruction, std::allocator<llvm::MCCFIInstruction>>::_Vector_impl" }
%"struct.std::_Vector_base<llvm::MCCFIInstruction, std::allocator<llvm::MCCFIInstruction>>::_Vector_impl" = type { %"struct.std::_Vector_base<llvm::MCCFIInstruction, std::allocator<llvm::MCCFIInstruction>>::_Vector_impl_data" }
%"struct.std::_Vector_base<llvm::MCCFIInstruction, std::allocator<llvm::MCCFIInstruction>>::_Vector_impl_data" = type { ptr, ptr, ptr }
%"class.std::vector.38" = type { %"struct.std::_Vector_base.39" }
%"struct.std::_Vector_base.39" = type { %"struct.std::_Vector_base<llvm::MCSymbol *, std::allocator<llvm::MCSymbol *>>::_Vector_impl" }
%"struct.std::_Vector_base<llvm::MCSymbol *, std::allocator<llvm::MCSymbol *>>::_Vector_impl" = type { %"struct.std::_Vector_base<llvm::MCSymbol *, std::allocator<llvm::MCSymbol *>>::_Vector_impl_data" }
%"struct.std::_Vector_base<llvm::MCSymbol *, std::allocator<llvm::MCSymbol *>>::_Vector_impl_data" = type { ptr, ptr, ptr }
%"class.std::vector.43" = type { %"struct.std::_Vector_base.44" }
%"struct.std::_Vector_base.44" = type { %"struct.std::_Vector_base<llvm::LandingPadInfo, std::allocator<llvm::LandingPadInfo>>::_Vector_impl" }
%"struct.std::_Vector_base<llvm::LandingPadInfo, std::allocator<llvm::LandingPadInfo>>::_Vector_impl" = type { %"struct.std::_Vector_base<llvm::LandingPadInfo, std::allocator<llvm::LandingPadInfo>>::_Vector_impl_data" }
%"struct.std::_Vector_base<llvm::LandingPadInfo, std::allocator<llvm::LandingPadInfo>>::_Vector_impl_data" = type { ptr, ptr, ptr }
%"class.llvm::DenseMap" = type <{ ptr, i32, i32, i32, [4 x i8] }>
%"class.llvm::DenseMap.48" = type <{ ptr, i32, i32, i32, [4 x i8] }>
%"class.llvm::DenseMap.51" = type <{ ptr, i32, i32, i32, [4 x i8] }>
%"class.std::vector.54" = type { %"struct.std::_Vector_base.55" }
%"struct.std::_Vector_base.55" = type { %"struct.std::_Vector_base<std::pair<llvm::MCSymbol *, llvm::MDNode *>, std::allocator<std::pair<llvm::MCSymbol *, llvm::MDNode *>>>::_Vector_impl" }
%"struct.std::_Vector_base<std::pair<llvm::MCSymbol *, llvm::MDNode *>, std::allocator<std::pair<llvm::MCSymbol *, llvm::MDNode *>>>::_Vector_impl" = type { %"struct.std::_Vector_base<std::pair<llvm::MCSymbol *, llvm::MDNode *>, std::allocator<std::pair<llvm::MCSymbol *, llvm::MDNode *>>>::_Vector_impl_data" }
%"struct.std::_Vector_base<std::pair<llvm::MCSymbol *, llvm::MDNode *>, std::allocator<std::pair<llvm::MCSymbol *, llvm::MDNode *>>>::_Vector_impl_data" = type { ptr, ptr, ptr }
%"class.std::vector.59" = type { %"struct.std::_Vector_base.60" }
%"struct.std::_Vector_base.60" = type { %"struct.std::_Vector_base<const llvm::GlobalValue *, std::allocator<const llvm::GlobalValue *>>::_Vector_impl" }
%"struct.std::_Vector_base<const llvm::GlobalValue *, std::allocator<const llvm::GlobalValue *>>::_Vector_impl" = type { %"struct.std::_Vector_base<const llvm::GlobalValue *, std::allocator<const llvm::GlobalValue *>>::_Vector_impl_data" }
%"struct.std::_Vector_base<const llvm::GlobalValue *, std::allocator<const llvm::GlobalValue *>>::_Vector_impl_data" = type { ptr, ptr, ptr }
%"class.std::vector.64" = type { %"struct.std::_Vector_base.65" }
%"struct.std::_Vector_base.65" = type { %"struct.std::_Vector_base<unsigned int, std::allocator<unsigned int>>::_Vector_impl" }
%"struct.std::_Vector_base<unsigned int, std::allocator<unsigned int>>::_Vector_impl" = type { %"struct.std::_Vector_base<unsigned int, std::allocator<unsigned int>>::_Vector_impl_data" }
%"struct.std::_Vector_base<unsigned int, std::allocator<unsigned int>>::_Vector_impl_data" = type { ptr, ptr, ptr }
%"class.llvm::DenseMap.69" = type <{ ptr, i32, i32, i32, [4 x i8] }>
%"class.llvm::SmallVector.72" = type { %"class.llvm::SmallVectorImpl.73", %"struct.llvm::SmallVectorStorage.76" }
%"class.llvm::SmallVectorImpl.73" = type { %"class.llvm::SmallVectorTemplateBase.74" }
%"class.llvm::SmallVectorTemplateBase.74" = type { %"class.llvm::SmallVectorTemplateCommon.75" }
%"class.llvm::SmallVectorTemplateCommon.75" = type { %"class.llvm::SmallVectorBase" }
%"struct.llvm::SmallVectorStorage.76" = type { [128 x i8] }
%"class.llvm::SmallVector.77" = type { %"class.llvm::SmallVectorImpl.78", %"struct.llvm::SmallVectorStorage.81" }
%"class.llvm::SmallVectorImpl.78" = type { %"class.llvm::SmallVectorTemplateBase.79" }
%"class.llvm::SmallVectorTemplateBase.79" = type { %"class.llvm::SmallVectorTemplateCommon.80" }
%"class.llvm::SmallVectorTemplateCommon.80" = type { %"class.llvm::SmallVectorBase" }
%"struct.llvm::SmallVectorStorage.81" = type { [160 x i8] }
%"class.llvm::DenseMap.82" = type <{ ptr, i32, i32, i32, [4 x i8] }>
%"class.llvm::MachineFrameInfo" = type { %"struct.llvm::Align", i8, i8, %"class.std::vector.102", i32, i8, i8, i8, i8, i8, i64, i64, %"struct.llvm::Align", i8, i8, i32, i32, i64, i32, %"class.std::vector.107", i8, %"class.llvm::SmallVector.112", i64, %"struct.llvm::Align", i8, i8, i8, i8, i8, i8, ptr, ptr, i64 }
%"class.std::vector.102" = type { %"struct.std::_Vector_base.103" }
%"struct.std::_Vector_base.103" = type { %"struct.std::_Vector_base<llvm::MachineFrameInfo::StackObject, std::allocator<llvm::MachineFrameInfo::StackObject>>::_Vector_impl" }
%"struct.std::_Vector_base<llvm::MachineFrameInfo::StackObject, std::allocator<llvm::MachineFrameInfo::StackObject>>::_Vector_impl" = type { %"struct.std::_Vector_base<llvm::MachineFrameInfo::StackObject, std::allocator<llvm::MachineFrameInfo::StackObject>>::_Vector_impl_data" }
%"struct.std::_Vector_base<llvm::MachineFrameInfo::StackObject, std::allocator<llvm::MachineFrameInfo::StackObject>>::_Vector_impl_data" = type { ptr, ptr, ptr }
%"class.std::vector.107" = type { %"struct.std::_Vector_base.108" }
%"struct.std::_Vector_base.108" = type { %"struct.std::_Vector_base<llvm::CalleeSavedInfo, std::allocator<llvm::CalleeSavedInfo>>::_Vector_impl" }
%"struct.std::_Vector_base<llvm::CalleeSavedInfo, std::allocator<llvm::CalleeSavedInfo>>::_Vector_impl" = type { %"struct.std::_Vector_base<llvm::CalleeSavedInfo, std::allocator<llvm::CalleeSavedInfo>>::_Vector_impl_data" }
%"struct.std::_Vector_base<llvm::CalleeSavedInfo, std::allocator<llvm::CalleeSavedInfo>>::_Vector_impl_data" = type { ptr, ptr, ptr }
%"class.llvm::SmallVector.112" = type { %"class.llvm::SmallVectorImpl.113", %"struct.llvm::SmallVectorStorage.116" }
%"class.llvm::SmallVectorImpl.113" = type { %"class.llvm::SmallVectorTemplateBase.114" }
%"class.llvm::SmallVectorTemplateBase.114" = type { %"class.llvm::SmallVectorTemplateCommon.115" }
%"class.llvm::SmallVectorTemplateCommon.115" = type { %"class.llvm::SmallVectorBase" }
%"struct.llvm::SmallVectorStorage.116" = type { [512 x i8] }

; Function Attrs: mustprogress nounwind uwtable
define linkonce_odr hidden noundef zeroext i1 @_ZNK4llvm16MachineFrameInfo18hasVarSizedObjectsEv(ptr noundef nonnull align 8 dereferenceable(696) %0) #1 comdat align 2 {
  %2 = alloca ptr, align 8
  store ptr %0, ptr %2, align 8
  %3 = load ptr, ptr %2, align 8
  %4 = getelementptr inbounds nuw %"class.llvm::MachineFrameInfo", ptr %3, i32 0, i32 5
  %5 = load i8, ptr %4, align 4
  %6 = trunc i8 %5 to i1
  ret i1 %6
}

; Function Attrs: mustprogress nounwind uwtable
define linkonce_odr hidden noundef nonnull align 8 dereferenceable(696) ptr @_ZNK4llvm15MachineFunction12getFrameInfoEv(ptr noundef nonnull align 8 dereferenceable(1041) %0) #1 comdat align 2 {
  %2 = alloca ptr, align 8
  store ptr %0, ptr %2, align 8
  %3 = load ptr, ptr %2, align 8
  %4 = getelementptr inbounds nuw %"class.llvm::MachineFunction", ptr %3, i32 0, i32 6
  %5 = load ptr, ptr %4, align 8
  ret ptr %5
}

; Function Attrs: mustprogress nounwind uwtable
define dso_local noundef zeroext i1 @_ZNK4llvm20AArch64FrameLowering20hasReservedCallFrameERKNS_15MachineFunctionE(ptr noundef nonnull align 8 dereferenceable(21) %0, ptr noundef nonnull align 8 dereferenceable(1041) %1) unnamed_addr #1 align 2 {
  %3 = alloca ptr, align 8
  %4 = alloca ptr, align 8
  store ptr %0, ptr %3, align 8
  store ptr %1, ptr %4, align 8
  %5 = load ptr, ptr %4, align 8
  %6 = call noundef nonnull align 8 dereferenceable(696) ptr @_ZNK4llvm15MachineFunction12getFrameInfoEv(ptr noundef nonnull align 8 dereferenceable(1041) %5)
  %7 = call noundef zeroext i1 @_ZNK4llvm16MachineFrameInfo18hasVarSizedObjectsEv(ptr noundef nonnull align 8 dereferenceable(696) %6)
  %8 = xor i1 %7, true
  ret i1 %8
}