; Function Attrs: mustprogress nofree norecurse nosync nounwind willreturn memory(read, inaccessiblemem: none) uwtable
define dso_local noundef zeroext i1 @_ZNK4llvm20AArch64FrameLowering20hasReservedCallFrameERKNS_15MachineFunctionE(ptr nocapture nonnull readnone align 8 %0, ptr nocapture noundef nonnull readonly align 8 dereferenceable(1041) %1) unnamed_addr #5 align 2 {
  %3 = getelementptr inbounds nuw i8, ptr %1, i64 48
  %4 = load ptr, ptr %3, align 8
  %5 = getelementptr inbounds nuw i8, ptr %4, i64 36
  %6 = load i8, ptr %5, align 4
  %7 = trunc i8 %6 to i1
  %8 = xor i1 %7, true
  ret i1 %8
}